target datalayout = "e-m:e-p270:32:32-p271:32:32-p272:64:64-i64:64-i128:128-f80:128-n8:16:32:64-S128"
target triple = "x86_64-pc-linux-gnu"

@.str = private unnamed_addr constant [8 x i8] c"unknown\00", align 1
@.str.1 = private unnamed_addr constant [4 x i8] c"arm\00", align 1
@.str.2 = private unnamed_addr constant [6 x i8] c"armeb\00", align 1
@.str.3 = private unnamed_addr constant [6 x i8] c"arm64\00", align 1
@.str.4 = private unnamed_addr constant [7 x i8] c"arm64e\00", align 1
@.str.5 = private unnamed_addr constant [4 x i8] c"ppc\00", align 1
@.str.6 = private unnamed_addr constant [6 x i8] c"ppc64\00", align 1
@.str.7 = private unnamed_addr constant [8 x i8] c"ppc64le\00", align 1
@.str.8 = private unnamed_addr constant [8 x i8] c"riscv32\00", align 1
@.str.9 = private unnamed_addr constant [8 x i8] c"riscv64\00", align 1
@.str.10 = private unnamed_addr constant [6 x i8] c"thumb\00", align 1
@.str.11 = private unnamed_addr constant [8 x i8] c"thumbeb\00", align 1
@.str.12 = private unnamed_addr constant [5 x i8] c"i386\00", align 1
@.str.13 = private unnamed_addr constant [7 x i8] c"x86_64\00", align 1
@.str.14 = private unnamed_addr constant [7 x i8] c"wasm32\00", align 1
@.str.15 = private unnamed_addr constant [7 x i8] c"wasm64\00", align 1
@.str.16 = private unnamed_addr constant [36 x i8] c"FATAL ERROR %s -> in %s @ in %s:%d \00", align 1
@.str.17 = private unnamed_addr constant [22 x i8] c"Should be unreachable\00", align 1
@__func__.arch_to_linker_arch = private unnamed_addr constant [20 x i8] c"arch_to_linker_arch\00", align 1
@.str.18 = private unnamed_addr constant [107 x i8] c"generated/home/dtcxzyw/WorkSpace/Projects/compilers/llvm-opt-benchmark/bench/c3c/c3c/src/compiler/target.c\00", align 1

; Function Attrs: nounwind uwtable
define dso_local ptr @arch_to_linker_arch(i32 noundef %0) #0 {
  %2 = alloca ptr, align 8
  %3 = alloca i32, align 4
  store i32 %0, ptr %3, align 4
  %4 = load i32, ptr %3, align 4
  switch i32 %4, label %21 [
    i32 5, label %5
    i32 8, label %5
    i32 9, label %5
    i32 25, label %5
    i32 37, label %5
    i32 38, label %5
    i32 39, label %5
    i32 40, label %5
    i32 41, label %5
    i32 44, label %5
    i32 45, label %5
    i32 49, label %5
    i32 50, label %5
    i32 36, label %5
    i32 11, label %5
    i32 12, label %5
    i32 14, label %5
    i32 13, label %5
    i32 7, label %5
    i32 35, label %5
    i32 34, label %5
    i32 15, label %5
    i32 26, label %5
    i32 28, label %5
    i32 27, label %5
    i32 46, label %5
    i32 10, label %5
    i32 20, label %5
    i32 19, label %5
    i32 23, label %5
    i32 24, label %5
    i32 33, label %5
    i32 6, label %5
    i32 43, label %5
    i32 42, label %5
    i32 0, label %5
    i32 1, label %6
    i32 2, label %7
    i32 3, label %8
    i32 4, label %9
    i32 16, label %10
    i32 17, label %11
    i32 18, label %12
    i32 21, label %13
    i32 22, label %14
    i32 29, label %15
    i32 30, label %16
    i32 31, label %17
    i32 32, label %18
    i32 47, label %19
    i32 48, label %20
  ]

5:                                                ; preds = %1, %1, %1, %1, %1, %1, %1, %1, %1, %1, %1, %1, %1, %1, %1, %1, %1, %1, %1, %1, %1, %1, %1, %1, %1, %1, %1, %1, %1, %1, %1, %1, %1, %1, %1, %1
  store ptr @.str, ptr %2, align 8
  br label %23

6:                                                ; preds = %1
  store ptr @.str.1, ptr %2, align 8
  br label %23

7:                                                ; preds = %1
  store ptr @.str.2, ptr %2, align 8
  br label %23

8:                                                ; preds = %1
  store ptr @.str.3, ptr %2, align 8
  br label %23

9:                                                ; preds = %1
  store ptr @.str.4, ptr %2, align 8
  br label %23

10:                                               ; preds = %1
  store ptr @.str.5, ptr %2, align 8
  br label %23

11:                                               ; preds = %1
  store ptr @.str.6, ptr %2, align 8
  br label %23

12:                                               ; preds = %1
  store ptr @.str.7, ptr %2, align 8
  br label %23

13:                                               ; preds = %1
  store ptr @.str.8, ptr %2, align 8
  br label %23

14:                                               ; preds = %1
  store ptr @.str.9, ptr %2, align 8
  br label %23

15:                                               ; preds = %1
  store ptr @.str.10, ptr %2, align 8
  br label %23

16:                                               ; preds = %1
  store ptr @.str.11, ptr %2, align 8
  br label %23

17:                                               ; preds = %1
  store ptr @.str.12, ptr %2, align 8
  br label %23

18:                                               ; preds = %1
  store ptr @.str.13, ptr %2, align 8
  br label %23

19:                                               ; preds = %1
  store ptr @.str.14, ptr %2, align 8
  br label %23

20:                                               ; preds = %1
  store ptr @.str.15, ptr %2, align 8
  br label %23

21:                                               ; preds = %1
  br label %22

22:                                               ; preds = %21
  call void (ptr, ...) @error_exit(ptr noundef @.str.16, ptr noundef @.str.17, ptr noundef @__func__.arch_to_linker_arch, ptr noundef @.str.18, i32 noundef 1009) #7
  unreachable

23:                                               ; preds = %20, %19, %18, %17, %16, %15, %14, %13, %12, %11, %10, %9, %8, %7, %6, %5
  %24 = load ptr, ptr %2, align 8
  ret ptr %24
}