; Function Attrs: nounwind uwtable
define dso_local noundef nonnull ptr @arch_to_linker_arch(i32 noundef %0) local_unnamed_addr #2 {
  %2 = icmp ult i32 %0, 51
  br i1 %2, label %switch.lookup, label %3

3:                                                ; preds = %1
  tail call void (ptr, ...) @error_exit(ptr noundef nonnull @.str.16, ptr noundef nonnull @.str.17, ptr noundef nonnull @__func__.arch_to_linker_arch, ptr noundef nonnull @.str.18, i32 noundef 1009) #16
  unreachable

switch.lookup:                                    ; preds = %1
  %4 = zext nneg i32 %0 to i64
  %switch.gep = getelementptr inbounds [51 x ptr], ptr @switch.table.arch_to_linker_arch, i64 0, i64 %4
  %switch.load = load ptr, ptr %switch.gep, align 8
  ret ptr %switch.load
}